; Function Attrs: mustprogress uwtable
define hidden void @_ZN7datalog27mk_quantifier_instantiation22instantiate_quantifierEP10quantifierP3appR10ref_vectorI4expr11ast_managerE(ptr noundef nonnull align 8 dereferenceable(384) %0, ptr noundef %1, ptr noundef %2, ptr noundef nonnull align 8 dereferenceable(16) %3) local_unnamed_addr #3 align 2 personality ptr @__gxx_personality_v0 {
  %5 = alloca %class.svector.146, align 8
  %6 = getelementptr inbounds nuw i8, ptr %0, i64 352
  %7 = load ptr, ptr %6, align 8, !tbaa !213
  %.not.i = icmp eq ptr %7, null
  br i1 %.not.i, label %_ZNK6vectorIP4exprLb0EjE4sizeEv.exit.i, label %_ZNK6vectorIP4exprLb0EjE4sizeEv.exit.thread.i

_ZNK6vectorIP4exprLb0EjE4sizeEv.exit.i:           ; preds = %4
  %8 = getelementptr inbounds nuw i8, ptr %1, i64 20
  %9 = load i32, ptr %8, align 4, !tbaa !279
  %.not.not.i = icmp eq i32 %9, 0
  br i1 %.not.not.i, label %_ZN6vectorIP4exprLb0EjE6resizeEj.exit, label %thread-pre-split.i.preheader

_ZNK6vectorIP4exprLb0EjE4sizeEv.exit.thread.i:    ; preds = %4
  %10 = getelementptr inbounds i8, ptr %7, i64 -4
  store i32 0, ptr %10, align 4, !tbaa !235
  %11 = getelementptr inbounds nuw i8, ptr %1, i64 20
  %12 = load i32, ptr %11, align 4, !tbaa !279
  %.not15.i.not = icmp eq i32 %12, 0
  br i1 %.not15.i.not, label %_ZN6vectorIP4exprLb0EjE6resizeEj.exit, label %thread-pre-split.i.preheader

thread-pre-split.i.preheader:                     ; preds = %_ZNK6vectorIP4exprLb0EjE4sizeEv.exit.i, %_ZNK6vectorIP4exprLb0EjE4sizeEv.exit.thread.i
  %.ph = phi i32 [ %12, %_ZNK6vectorIP4exprLb0EjE4sizeEv.exit.thread.i ], [ %9, %_ZNK6vectorIP4exprLb0EjE4sizeEv.exit.i ]
  %.ph6 = phi ptr [ %7, %_ZNK6vectorIP4exprLb0EjE4sizeEv.exit.thread.i ], [ null, %_ZNK6vectorIP4exprLb0EjE4sizeEv.exit.i ]
  br label %thread-pre-split.i

thread-pre-split.i:                               ; preds = %thread-pre-split.i.preheader, %_ZNK6vectorIP4exprLb0EjE8capacityEv.exit.thread.i
  %13 = phi ptr [ %.pr.pre.i, %_ZNK6vectorIP4exprLb0EjE8capacityEv.exit.thread.i ], [ %.ph6, %thread-pre-split.i.preheader ]
  %14 = icmp eq ptr %13, null
  br i1 %14, label %_ZNK6vectorIP4exprLb0EjE8capacityEv.exit.thread.i, label %_ZNK6vectorIP4exprLb0EjE8capacityEv.exit.i

_ZNK6vectorIP4exprLb0EjE8capacityEv.exit.i:       ; preds = %thread-pre-split.i
  %15 = getelementptr inbounds i8, ptr %13, i64 -8
  %16 = load i32, ptr %15, align 4, !tbaa !235
  %17 = icmp ugt i32 %.ph, %16
  br i1 %17, label %_ZNK6vectorIP4exprLb0EjE8capacityEv.exit.thread.i, label %.lr.ph.preheader.i

_ZNK6vectorIP4exprLb0EjE8capacityEv.exit.thread.i: ; preds = %_ZNK6vectorIP4exprLb0EjE8capacityEv.exit.i, %thread-pre-split.i
  tail call void @_ZN6vectorIP4exprLb0EjE13expand_vectorEv(ptr noundef nonnull align 8 dereferenceable(8) %6)
  %.pr.pre.i = load ptr, ptr %6, align 8, !tbaa !213
  br label %thread-pre-split.i, !llvm.loop !291

.lr.ph.preheader.i:                               ; preds = %_ZNK6vectorIP4exprLb0EjE8capacityEv.exit.i
  %18 = getelementptr inbounds i8, ptr %13, i64 -4
  store i32 %.ph, ptr %18, align 4, !tbaa !235
  %19 = zext i32 %.ph to i64
  %20 = shl nuw nsw i64 %19, 3
  tail call void @llvm.memset.p0.i64(ptr noundef nonnull align 8 dereferenceable(1) %13, i8 0, i64 %20, i1 false), !tbaa !236
  br label %_ZN6vectorIP4exprLb0EjE6resizeEj.exit

_ZN6vectorIP4exprLb0EjE6resizeEj.exit:            ; preds = %_ZNK6vectorIP4exprLb0EjE4sizeEv.exit.thread.i, %_ZNK6vectorIP4exprLb0EjE4sizeEv.exit.i, %.lr.ph.preheader.i
  call void @llvm.lifetime.start.p0(i64 8, ptr nonnull %5) #18
  store ptr null, ptr %5, align 8, !tbaa !292
  invoke void @_ZN7datalog27mk_quantifier_instantiation5matchEjP3appjR7svectorISt4pairIP4exprS6_EjEP10quantifierR10ref_vectorIS5_11ast_managerE(ptr noundef nonnull align 8 dereferenceable(384) %0, i32 noundef 0, ptr noundef %2, i32 noundef 0, ptr noundef nonnull align 8 dereferenceable(8) %5, ptr noundef nonnull %1, ptr noundef nonnull align 8 dereferenceable(16) %3)
          to label %21 unwind label %28

21:                                               ; preds = %_ZN6vectorIP4exprLb0EjE6resizeEj.exit
  %22 = load ptr, ptr %5, align 8, !tbaa !292
  %.not.i.i = icmp eq ptr %22, null
  br i1 %.not.i.i, label %_ZN6vectorISt4pairIP4exprS2_ELb0EjED2Ev.exit, label %23

23:                                               ; preds = %21
  %24 = getelementptr inbounds i8, ptr %22, i64 -8
  invoke void @_ZN6memory10deallocateEPv(ptr noundef nonnull %24)
          to label %_ZN6vectorISt4pairIP4exprS2_ELb0EjED2Ev.exit unwind label %25

25:                                               ; preds = %23
  %26 = landingpad { ptr, i32 }
          catch ptr null
  %27 = extractvalue { ptr, i32 } %26, 0
  call void @__clang_call_terminate(ptr %27) #19
  unreachable

_ZN6vectorISt4pairIP4exprS2_ELb0EjED2Ev.exit:     ; preds = %21, %23
  call void @llvm.lifetime.end.p0(i64 8, ptr nonnull %5) #18
  ret void

28:                                               ; preds = %_ZN6vectorIP4exprLb0EjE6resizeEj.exit
  %29 = landingpad { ptr, i32 }
          cleanup
  call void @_ZN6vectorISt4pairIP4exprS2_ELb0EjED2Ev(ptr noundef nonnull align 8 dereferenceable(8) %5) #18
  call void @llvm.lifetime.end.p0(i64 8, ptr nonnull %5) #18
  resume { ptr, i32 } %29
}